; Function Attrs: null_pointer_is_valid sspstrong uwtable
define void @wmem_array_set_null_terminator(ptr noundef captures(none) initializes((32, 33)) %0) local_unnamed_addr #0 {
  %2 = getelementptr inbounds nuw i8, ptr %0, i64 32
  store i8 1, ptr %2, align 8
  %3 = getelementptr inbounds nuw i8, ptr %0, i64 28
  %4 = load i32, ptr %3, align 4
  %5 = getelementptr inbounds nuw i8, ptr %0, i64 24
  %6 = load i32, ptr %5, align 8
  %7 = add i32 %6, 1
  br label %8

8:                                                ; preds = %8, %1
  %.0.i.i = phi i32 [ %4, %1 ], [ %10, %8 ]
  %9 = icmp ult i32 %.0.i.i, %7
  %10 = shl i32 %.0.i.i, 1
  br i1 %9, label %8, label %11, !llvm.loop !6

11:                                               ; preds = %8
  %12 = icmp eq i32 %.0.i.i, %4
  br i1 %12, label %.wmem_array_grow.exit_crit_edge.i, label %13

.wmem_array_grow.exit_crit_edge.i:                ; preds = %11
  %.phi.trans.insert.i = getelementptr inbounds nuw i8, ptr %0, i64 8
  %.pre.i = load ptr, ptr %.phi.trans.insert.i, align 8
  br label %wmem_array_write_null_terminator.exit

13:                                               ; preds = %11
  %14 = load ptr, ptr %0, align 8
  %15 = getelementptr inbounds nuw i8, ptr %0, i64 8
  %16 = load ptr, ptr %15, align 8
  %17 = zext i32 %.0.i.i to i64
  %18 = getelementptr inbounds nuw i8, ptr %0, i64 16
  %19 = load i64, ptr %18, align 8
  %20 = mul i64 %19, %17
  %21 = tail call ptr @wmem_realloc(ptr noundef %14, ptr noundef %16, i64 noundef %20) #13
  store ptr %21, ptr %15, align 8
  store i32 %.0.i.i, ptr %3, align 4
  %.pre6.i = load i32, ptr %5, align 8
  br label %wmem_array_write_null_terminator.exit

wmem_array_write_null_terminator.exit:            ; preds = %.wmem_array_grow.exit_crit_edge.i, %13
  %22 = phi i32 [ %6, %.wmem_array_grow.exit_crit_edge.i ], [ %.pre6.i, %13 ]
  %23 = phi ptr [ %.pre.i, %.wmem_array_grow.exit_crit_edge.i ], [ %21, %13 ]
  %24 = zext i32 %22 to i64
  %25 = getelementptr inbounds nuw i8, ptr %0, i64 16
  %26 = load i64, ptr %25, align 8
  %27 = mul i64 %26, %24
  %28 = getelementptr i8, ptr %23, i64 %27
  tail call void @llvm.memset.p0.i64(ptr noundef align 1 %28, i8 noundef 0, i64 noundef %26, i1 noundef false) #14
  ret void
}